(lp0
cnumpy.core.multiarray
scalar
p1
(cnumpy
dtype
p2
(S'f8'
p3
I0
I1
tp4
Rp5
(I3
S'<'
p6
NNNI-1
I-1
I0
tp7
bS'D\x8bl\xa7\xed\x13\xe7?'
p8
tp9
Rp10
ag1
(g5
S'\xd9\xce\xf7\x9b\xcb\xb1\xe6?'
p11
tp12
Rp13
a.