(lp0
cnumpy.core.multiarray
scalar
p1
(cnumpy
dtype
p2
(S'f8'
p3
I0
I1
tp4
Rp5
(I3
S'<'
p6
NNNI-1
I-1
I0
tp7
bS'\xb2\x9d\xef\xf3fV\xe5?'
p8
tp9
Rp10
ag1
(g5
S'\x0c\x02+\x88\xe9\x06\xe4?'
p11
tp12
Rp13
a.(lp0
cnumpy.core.multiarray
scalar
p1
(cnumpy
dtype
p2
(S'f8'
p3
I0
I1
tp4
Rp5
(I3
S'<'
p6
NNNI-1
I-1
I0
tp7
bS'\xecQ\xb8h\xbb\x0b\xe7?'
p8
tp9
Rp10
ag1
(g5
S'H\xe1z^\nR\xeb?'
p11
tp12
Rp13
a.